; Function Attrs: nounwind uwtable
define hidden void @gc_reset() local_unnamed_addr #2 {
  %1 = alloca %struct.timespec, align 8
  %2 = load ptr, ptr @gc_globals, align 8
  %.not = icmp eq ptr %2, null
  br i1 %.not, label %4, label %3

3:                                                ; preds = %0
  tail call void @llvm.memset.p0.i64(ptr noundef nonnull align 1 dereferenceable(7) getelementptr inbounds (%struct._zend_gc_globals, ptr @gc_globals, i64 0, i32 2), i8 0, i64 7, i1 false)
  store i32 1, ptr getelementptr inbounds (%struct._zend_gc_globals, ptr @gc_globals, i64 0, i32 6), align 8
  store i32 0, ptr getelementptr inbounds (%struct._zend_gc_globals, ptr @gc_globals, i64 0, i32 9), align 4
  store i32 0, ptr getelementptr inbounds (%struct._zend_gc_globals, ptr @gc_globals, i64 0, i32 10), align 8
  store i32 0, ptr getelementptr inbounds (%struct._zend_gc_globals, ptr @gc_globals, i64 0, i32 11), align 4
  tail call void @llvm.memset.p0.i64(ptr noundef nonnull align 8 dereferenceable(24) getelementptr inbounds (%struct._zend_gc_globals, ptr @gc_globals, i64 0, i32 13), i8 0, i64 24, i1 false)
  br label %4

4:                                                ; preds = %3, %0
  call void @llvm.memset.p0.i64(ptr noundef nonnull align 8 dereferenceable(16) %1, i8 0, i64 16, i1 false)
  %5 = call i32 @clock_gettime(i32 noundef 1, ptr noundef nonnull %1) #15
  %6 = icmp eq i32 %5, 0
  br i1 %6, label %7, label %13

7:                                                ; preds = %4
  %8 = load i64, ptr %1, align 8
  %9 = mul i64 %8, 1000000000
  %10 = getelementptr inbounds i8, ptr %1, i64 8
  %11 = load i64, ptr %10, align 8
  %12 = add i64 %9, %11
  br label %13

13:                                               ; preds = %4, %7
  %.0 = phi i64 [ %12, %7 ], [ 0, %4 ]
  store i64 %.0, ptr getelementptr inbounds (%struct._zend_gc_globals, ptr @gc_globals, i64 0, i32 12), align 8
  ret void
}